Certificate:
    Data:
        Version: 3 (0x2)
        Serial Number:
            e2:e9:a5:97:ea:61:8a:3d:e9:a9:6a:bf:40:e7:63:96
        Signature Algorithm: ecdsa-with-SHA256
        Issuer: CN=cn_isBO5EGZMD4E79uG
        Validity
            Not Before: May 29 13:33:54 2023 GMT
            Not After : Aug 31 13:33:54 2025 GMT
        Subject: CN=server_EvtEoBq2KEAEPevM
        Subject Public Key Info:
            Public Key Algorithm: id-ecPublicKey
                Public-Key: (256 bit)
                pub:
                    04:96:10:c6:24:1a:45:23:43:9a:14:bb:97:68:7d:
                    21:3f:66:47:97:a4:6d:ee:63:5e:51:bb:67:f5:15:
                    d7:c6:17:44:77:f3:20:4b:d3:a6:eb:80:f0:df:dc:
                    9c:79:5c:62:1b:78:4f:f7:6b:f1:76:ae:8c:43:88:
                    ed:1e:87:e0:8c
                ASN1 OID: prime256v1
                NIST CURVE: P-256
        X509v3 extensions:
            X509v3 Basic Constraints: 
                CA:FALSE
            X509v3 Subject Key Identifier: 
                66:A4:41:35:55:D5:1A:AD:4E:65:FE:DA:77:1A:1A:77:07:FF:95:D3
            X509v3 Authority Key Identifier: 
                keyid:85:17:4F:21:97:55:D9:AE:89:7D:37:48:54:CE:31:D9:AA:0B:CC:C7
                DirName:/CN=cn_isBO5EGZMD4E79uG
                serial:39:53:FC:7F:0E:ED:64:C9:9A:C5:EF:1F:F2:18:88:C9:1C:5D:38:06

            X509v3 Extended Key Usage: 
                TLS Web Server Authentication
            X509v3 Key Usage: 
                Digital Signature, Key Encipherment
            X509v3 Subject Alternative Name: 
                DNS:server_EvtEoBq2KEAEPevM
    Signature Algorithm: ecdsa-with-SHA256
         30:45:02:20:32:3a:49:9e:31:32:b0:cf:44:c6:2f:50:c6:41:
         89:0c:c6:5f:a1:7a:e7:1d:dd:a0:95:05:49:e7:48:d0:b0:29:
         02:21:00:d9:30:1b:aa:16:57:a6:20:89:9c:3a:c4:f7:47:3f:
         e5:83:ac:79:a3:f8:37:26:9d:48:93:d0:94:40:55:ac:0f
-----BEGIN CERTIFICATE-----
MIICDjCCAbSgAwIBAgIRAOLppZfqYYo96alqv0DnY5YwCgYIKoZIzj0EAwIwHjEc
MBoGA1UEAwwTY25faXNCTzVFR1pNRDRFNzl1RzAeFw0yMzA1MjkxMzMzNTRaFw0y
NTA4MzExMzMzNTRaMCIxIDAeBgNVBAMMF3NlcnZlcl9FdnRFb0JxMktFQUVQZXZN
MFkwEwYHKoZIzj0CAQYIKoZIzj0DAQcDQgAElhDGJBpFI0OaFLuXaH0hP2ZHl6Rt
7mNeUbtn9RXXxhdEd/MgS9Om64Dw39yceVxiG3hP92vxdq6MQ4jtHofgjKOBzjCB
yzAJBgNVHRMEAjAAMB0GA1UdDgQWBBRmpEE1VdUarU5l/tp3Ghp3B/+V0zBZBgNV
HSMEUjBQgBSFF08hl1XZrol9N0hUzjHZqgvMx6EipCAwHjEcMBoGA1UEAwwTY25f
aXNCTzVFR1pNRDRFNzl1R4IUOVP8fw7tZMmaxe8f8hiIyRxdOAYwEwYDVR0lBAww
CgYIKwYBBQUHAwEwCwYDVR0PBAQDAgWgMCIGA1UdEQQbMBmCF3NlcnZlcl9FdnRF
b0JxMktFQUVQZXZNMAoGCCqGSM49BAMCA0gAMEUCIDI6SZ4xMrDPRMYvUMZBiQzG
X6F65x3doJUFSedI0LApAiEA2TAbqhZXpiCJnDrE90c/5YOseaP4NyadSJPQlEBV
rA8=
-----END CERTIFICATE-----
